; Function Attrs: mustprogress uwtable
define void @_ZN4lean21run_thread_finalizersEv() local_unnamed_addr #0 personality ptr @__gxx_personality_v0 {
  %1 = load ptr, ptr @_ZN4leanL23g_thread_finalizers_mgrE, align 8, !tbaa !17
  %2 = load i32, ptr %1, align 4, !tbaa !19
  %3 = tail call noundef ptr @pthread_getspecific(i32 noundef %2) #23
  %.not = icmp eq ptr %3, null
  br i1 %.not, label %_ZN4lean26run_thread_finalizers_coreERSt6vectorISt4pairIPFvPvES2_ESaIS5_EE.exit, label %4

4:                                                ; preds = %0
  %5 = tail call align 1 ptr @llvm.threadlocal.address.p0(ptr align 1 @_ZN4leanL12g_finalizingE)
  store i8 1, ptr %5, align 1, !tbaa !22
  %6 = getelementptr inbounds nuw i8, ptr %3, i64 8
  %7 = load ptr, ptr %6, align 8, !tbaa !24
  %8 = load ptr, ptr %3, align 8, !tbaa !27
  %9 = ptrtoint ptr %7 to i64
  %10 = ptrtoint ptr %8 to i64
  %11 = sub i64 %9, %10
  %12 = and i64 %11, 68719476720
  %.not8.i = icmp eq i64 %12, 0
  br i1 %.not8.i, label %._crit_edge.i, label %.lr.ph.preheader.i

.lr.ph.preheader.i:                               ; preds = %4
  %13 = lshr exact i64 %11, 4
  %14 = and i64 %13, 4294967295
  br label %.lr.ph.i

.lr.ph.i:                                         ; preds = %.lr.ph.i, %.lr.ph.preheader.i
  %indvars.iv.i = phi i64 [ %14, %.lr.ph.preheader.i ], [ %15, %.lr.ph.i ]
  %15 = add nsw i64 %indvars.iv.i, -1
  %16 = load ptr, ptr %3, align 8, !tbaa !27
  %17 = getelementptr inbounds nuw %"struct.std::pair", ptr %16, i64 %15
  %18 = load ptr, ptr %17, align 8, !tbaa !28
  %19 = getelementptr inbounds nuw i8, ptr %17, i64 8
  %20 = load ptr, ptr %19, align 8, !tbaa !30
  tail call void %18(ptr noundef %20)
  %.not.wide.i = icmp eq i64 %15, 0
  br i1 %.not.wide.i, label %._crit_edge.loopexit.i, label %.lr.ph.i, !llvm.loop !31

._crit_edge.loopexit.i:                           ; preds = %.lr.ph.i
  %.pre.i = load ptr, ptr %3, align 8, !tbaa !27
  %.pre11.i = load ptr, ptr %6, align 8, !tbaa !24
  br label %._crit_edge.i

._crit_edge.i:                                    ; preds = %._crit_edge.loopexit.i, %4
  %21 = phi ptr [ %.pre11.i, %._crit_edge.loopexit.i ], [ %7, %4 ]
  %22 = phi ptr [ %.pre.i, %._crit_edge.loopexit.i ], [ %8, %4 ]
  %.not.i.i.i = icmp eq ptr %21, %22
  br i1 %.not.i.i.i, label %_ZN4lean26run_thread_finalizers_coreERSt6vectorISt4pairIPFvPvES2_ESaIS5_EE.exit, label %_ZSt8_DestroyIPSt4pairIPFvPvES1_ES4_EvT_S6_RSaIT0_E.exit.i.i.i

_ZSt8_DestroyIPSt4pairIPFvPvES1_ES4_EvT_S6_RSaIT0_E.exit.i.i.i: ; preds = %._crit_edge.i
  store ptr %22, ptr %6, align 8, !tbaa !24
  br label %_ZN4lean26run_thread_finalizers_coreERSt6vectorISt4pairIPFvPvES2_ESaIS5_EE.exit

_ZN4lean26run_thread_finalizers_coreERSt6vectorISt4pairIPFvPvES2_ESaIS5_EE.exit: ; preds = %_ZSt8_DestroyIPSt4pairIPFvPvES1_ES4_EvT_S6_RSaIT0_E.exit.i.i.i, %._crit_edge.i, %0
  ret void
}